Certificate:
    Data:
        Version: 3 (0x2)
        Serial Number:
            35:f3:70:0d:bd:45:12:a6:66:68:70:5d
        Signature Algorithm: SM2-with-SM3
        Issuer: C=CN, O=Pikachu Trust Network CA, OU=Pikachu Certification Authority, CN=Pikachu Root CA SM2/name=\xE7\x9A\xAE\xE5\x8D\xA1\xE4\xB8\x98CA\xE7\xB3\xBB\xE7\xBB\x9F\xE8\xAF\x81\xE4\xB9\xA6SM2/name=Pikachu Root CA SM2/description=\xE7\x9A\xAE\xE5\x8D\xA1\xE4\xB8\x98\xE6\x95\xB0\xE5\xAD\x97\xE8\xAF\x81\xE4\xB9\xA6\xE4\xBF\xA1\xE4\xBB\xBB\xE7\xB3\xBB\xE7\xBB\x9F\xE6\xA0\xB9\xE8\xAF\x81\xE4\xB9\xA6
        Validity
            Not Before: Jan  1 00:00:00 2000 GMT
            Not After : Dec 31 23:59:59 2999 GMT
        Subject: C=CN, O=Pikachu Trust Network CA, OU=Pikachu Certification Authority, CN=Pikachu Root CA SM2/name=\xE7\x9A\xAE\xE5\x8D\xA1\xE4\xB8\x98CA\xE7\xB3\xBB\xE7\xBB\x9F\xE8\xAF\x81\xE4\xB9\xA6SM2/name=Pikachu Root CA SM2/description=\xE7\x9A\xAE\xE5\x8D\xA1\xE4\xB8\x98\xE6\x95\xB0\xE5\xAD\x97\xE8\xAF\x81\xE4\xB9\xA6\xE4\xBF\xA1\xE4\xBB\xBB\xE7\xB3\xBB\xE7\xBB\x9F\xE6\xA0\xB9\xE8\xAF\x81\xE4\xB9\xA6
        Subject Public Key Info:
            Public Key Algorithm: sm2
                Public-Key: (256 bit)
                pub:
                    04:aa:1a:9e:ff:f9:67:60:92:fd:f1:cf:d3:01:47:
                    10:1b:5a:52:fe:fd:fe:b1:df:b3:1a:9a:8a:2f:ec:
                    a3:2f:6e:6a:f8:eb:89:1a:b0:5a:6f:23:47:36:2a:
                    8c:1d:31:89:57:72:6b:94:d2:56:47:ad:e5:09:e7:
                    f7:6e:0b:ae:8e
                ASN1 OID: SM2
        X509v3 extensions:
            X509v3 Subject Alternative Name: 
                DNS:Pikachu Root CA SM2
            X509v3 Issuer Alternative Name: 
                DNS:Pikachu Root CA SM2
            X509v3 Subject Key Identifier: 
                67:43:F4:C1:40:63:43:AB:5D:A2:1E:AB:B2:5B:D6:9A:1A:0A:0D:36
            X509v3 Authority Key Identifier: 
                keyid:67:43:F4:C1:40:63:43:AB:5D:A2:1E:AB:B2:5B:D6:9A:1A:0A:0D:36
                DirName:/C=CN/O=Pikachu Trust Network CA/OU=Pikachu Certification Authority/CN=Pikachu Root CA SM2/name=\xE7\x9A\xAE\xE5\x8D\xA1\xE4\xB8\x98CA\xE7\xB3\xBB\xE7\xBB\x9F\xE8\xAF\x81\xE4\xB9\xA6SM2/name=Pikachu Root CA SM2
                serial:35:F3:70:0D:BD:45:12:A6:66:68:70:5D
            X509v3 Basic Constraints: critical
                CA:TRUE
            X509v3 Key Usage: 
                Certificate Sign, CRL Sign
            Netscape Comment: 
                Pikachu Root CA SM2
            Netscape Cert Type: 
                SSL CA, S/MIME CA, Object Signing CA
            Netscape CA Revocation Url: 
                https://cert.pika.net.cn/CA-SM2.crl
            Netscape Base Url: 
                https://cert.pika.net.cn
            Netscape Revocation Url: 
                https://cert.pika.net.cn/CA-SM2.crl
            Netscape Renewal Url: 
                https://cert.pika.net.cn/CA-SM2.cer
            Netscape CA Policy Url: 
                https://cert.pika.net.cn
            Netscape SSL Server Name: 
                cert.pika.net.cn
            X509v3 Extended Key Usage: critical
                X509v3 Any Policy, Any Extended Key Usage, 2.16.156.112554.3, 2.23.140.1.3, Netscape Server Gated Crypto, TLS Web Server Authentication, TLS Web Client Authentication, Code Signing, E-mail Protection, IPSec End System, IPSec Tunnel, IPSec User, Time Stamping, OCSP Signing, ipsec Internet Key Exchange, 1.3.6.1.5.5.8.2.2, 1.3.6.1.4.1.311, Microsoft Individual Code Signing, Microsoft Commercial Code Signing, Microsoft Trust List Signing, 1.3.6.1.4.1.311.10.3.2, Microsoft Server Gated Crypto, Microsoft Encrypted File System, 1.3.6.1.4.1.311.10.3.4.1, 1.3.6.1.4.1.311.10.3.5, 1.3.6.1.4.1.311.10.3.7, 1.3.6.1.4.1.311.10.3.6, 1.3.6.1.4.1.311.10.3.8, 1.3.6.1.4.1.311.10.3.9, 1.3.6.1.4.1.311.10.3.10, 1.3.6.1.4.1.311.10.3.11, 1.3.6.1.4.1.311.10.3.12, 1.3.6.1.4.1.311.10.3.13, 1.3.6.1.4.1.311.10.5.1, 1.3.6.1.4.1.311.10.6.1, 1.3.6.1.4.1.311.10.6.2, 1.3.6.1.4.1.311.20.2, 1.3.6.1.4.1.311.20.2.1, Microsoft Smartcard Login, Microsoft User Principal Name, 1.3.6.1.4.1.311.21.1, 1.3.6.1.4.1.311.21.2, 1.3.6.1.4.1.311.21.3, 1.3.6.1.4.1.311.21.4, 1.3.6.1.4.1.311.21.5, 1.3.6.1.4.1.311.21.6, 1.3.6.1.4.1.311.21.19, 1.3.6.1.4.1.311.67.1.1, 1.3.6.1.4.1.311.21.10
            X509v3 CRL Distribution Points: 
                Full Name:
                  URI:https://cert.pika.net.cn/CA-SM2.crl
                Full Name:
                  URI:https://cert.52pika.cn/CA-SM2.crl
                Full Name:
                  URI:https://cert.52pika.com/CA-SM2.crl
                Full Name:
                  URI:https://cert.99pika.cn/CA-SM2.crl
                Full Name:
                  URI:https://cert.99pika.com/CA-SM2.crl
                Full Name:
                  URI:https://pikachuim.github.io/CA/CA-SM2.crl
                Full Name:
                  URI:https://pikachuim.gitee.io/ca/CA-SM2.crl
            X509v3 Certificate Policies: 
                Policy: 2.23.140.1.3
                Policy: 2.16.156.112554.3
                Policy: X509v3 Any Policy
                Policy: Any Extended Key Usage
            Authority Information Access: 
                OCSP - URI:https://cert.pika.net.cn/CA-SM2
                OCSP - URI:https://cert.52pika.cn/CA-SM2
                OCSP - URI:https://cert.52pika.com/CA-SM2
                OCSP - URI:https://cert.99pika.cn/CA-SM2
                OCSP - URI:https://cert.99pika.com/CA-SM2
                OCSP - URI:https://pikachuim.github.io/CA/CA-SM2
                OCSP - URI:https://pikachuim.gitee.io/ca/CA-SM2
                CA Issuers - URI:https://cert.pika.net.cn/CA-SM2.cer
                CA Issuers - URI:https://cert.52pika.cn/CA-SM2.cer
                CA Issuers - URI:https://cert.52pika.com/CA-SM2.cer
                CA Issuers - URI:https://cert.99pika.cn/CA-SM2.cer
                CA Issuers - URI:https://cert.99pika.com/CA-SM2.cer
                CA Issuers - URI:https://pikachuim.github.io/CA/CA-SM2.cer
                CA Issuers - URI:https://pikachuim.gitee.io/ca/CA-SM2.cer
    Signature Algorithm: SM2-with-SM3
    Signature Value:
        30:45:02:20:51:3d:f2:4a:ae:23:5c:eb:80:cd:d1:23:4b:54:
        e6:c4:ee:ae:b4:dc:4e:b8:bd:83:26:c1:f1:94:b0:f6:e0:05:
        02:21:00:94:7d:c6:81:50:8b:08:9d:2e:08:02:4a:74:e0:fc:
        59:c9:0f:68:d9:de:68:c3:bc:13:7c:b2:a8:20:85:40:b3
-----BEGIN CERTIFICATE-----
MIIMJDCCC8qgAwIBAgIMNfNwDb1FEqZmaHBdMAoGCCqBHM9VAYN1MIHwMQswCQYD
VQQGEwJDTjEhMB8GA1UECgwYUGlrYWNodSBUcnVzdCBOZXR3b3JrIENBMSgwJgYD
VQQLDB9QaWthY2h1IENlcnRpZmljYXRpb24gQXV0aG9yaXR5MRwwGgYDVQQDDBNQ
aWthY2h1IFJvb3QgQ0EgU00yMSMwIQYDVQQpDBrnmq7ljaHkuJhDQeezu+e7n+iv
geS5plNNMjEcMBoGA1UEKQwTUGlrYWNodSBSb290IENBIFNNMjEzMDEGA1UEDQwq
55qu5Y2h5LiY5pWw5a2X6K+B5Lmm5L+h5Lu757O757uf5qC56K+B5LmmMCAXDTAw
MDEwMTAwMDAwMFoYDzI5OTkxMjMxMjM1OTU5WjCB8DELMAkGA1UEBhMCQ04xITAf
BgNVBAoMGFBpa2FjaHUgVHJ1c3QgTmV0d29yayBDQTEoMCYGA1UECwwfUGlrYWNo
dSBDZXJ0aWZpY2F0aW9uIEF1dGhvcml0eTEcMBoGA1UEAwwTUGlrYWNodSBSb290
IENBIFNNMjEjMCEGA1UEKQwa55qu5Y2h5LiYQ0Hns7vnu5/or4HkuaZTTTIxHDAa
BgNVBCkME1Bpa2FjaHUgUm9vdCBDQSBTTTIxMzAxBgNVBA0MKuearuWNoeS4mOaV
sOWtl+ivgeS5puS/oeS7u+ezu+e7n+agueivgeS5pjBaMBQGCCqBHM9VAYItBggq
gRzPVQGCLQNCAASqGp7/+Wdgkv3xz9MBRxAbWlL+/f6x37Mamoov7KMvbmr464ka
sFpvI0c2KowdMYlXcmuU0lZHreUJ5/duC66Oo4IJQzCCCT8wHgYDVR0RBBcwFYIT
UGlrYWNodSBSb290IENBIFNNMjAeBgNVHRIEFzAVghNQaWthY2h1IFJvb3QgQ0Eg
U00yMB0GA1UdDgQWBBRnQ/TBQGNDq12iHquyW9aaGgoNNjCCASoGA1UdIwSCASEw
ggEdgBRnQ/TBQGNDq12iHquyW9aaGgoNNqGB9qSB8zCB8DELMAkGA1UEBhMCQ04x
ITAfBgNVBAoMGFBpa2FjaHUgVHJ1c3QgTmV0d29yayBDQTEoMCYGA1UECwwfUGlr
YWNodSBDZXJ0aWZpY2F0aW9uIEF1dGhvcml0eTEcMBoGA1UEAwwTUGlrYWNodSBS
b290IENBIFNNMjEjMCEGA1UEKQwa55qu5Y2h5LiYQ0Hns7vnu5/or4HkuaZTTTIx
HDAaBgNVBCkME1Bpa2FjaHUgUm9vdCBDQSBTTTIxMzAxBgNVBA0MKuearuWNoeS4
mOaVsOWtl+ivgeS5puS/oeS7u+ezu+e7n+agueivgeS5poIMNfNwDb1FEqZmaHBd
MA8GA1UdEwEB/wQFMAMBAf8wCwYDVR0PBAQDAgEGMCIGCWCGSAGG+EIBDQQVFhNQ
aWthY2h1IFJvb3QgQ0EgU00yMBEGCWCGSAGG+EIBAQQEAwIABzAyBglghkgBhvhC
AQQEJRYjaHR0cHM6Ly9jZXJ0LnBpa2EubmV0LmNuL0NBLVNNMi5jcmwwJwYJYIZI
AYb4QgECBBoWGGh0dHBzOi8vY2VydC5waWthLm5ldC5jbjAyBglghkgBhvhCAQME
JRYjaHR0cHM6Ly9jZXJ0LnBpa2EubmV0LmNuL0NBLVNNMi5jcmwwMgYJYIZIAYb4
QgEHBCUWI2h0dHBzOi8vY2VydC5waWthLm5ldC5jbi9DQS1TTTIuY2VyMCcGCWCG
SAGG+EIBCAQaFhhodHRwczovL2NlcnQucGlrYS5uZXQuY24wHwYJYIZIAYb4QgEM
BBIWEGNlcnQucGlrYS5uZXQuY24wggImBgNVHSUBAf8EggIaMIICFgYEVR0gAAYE
VR0lAAYHYIEchu8qAwYFZ4EMAQMGCWCGSAGG+EIEAQYIKwYBBQUHAwEGCCsGAQUF
BwMCBggrBgEFBQcDAwYIKwYBBQUHAwQGCCsGAQUFBwMFBggrBgEFBQcDBgYIKwYB
BQUHAwcGCCsGAQUFBwMIBggrBgEFBQcDCQYIKwYBBQUHAxEGCCsGAQUFCAICBgcr
BgEEAYI3BgorBgEEAYI3AgEVBgorBgEEAYI3AgEWBgorBgEEAYI3CgMBBgorBgEE
AYI3CgMCBgorBgEEAYI3CgMDBgorBgEEAYI3CgMEBgsrBgEEAYI3CgMEAQYKKwYB
BAGCNwoDBQYKKwYBBAGCNwoDBwYKKwYBBAGCNwoDBgYKKwYBBAGCNwoDCAYKKwYB
BAGCNwoDCQYKKwYBBAGCNwoDCgYKKwYBBAGCNwoDCwYKKwYBBAGCNwoDDAYKKwYB
BAGCNwoDDQYKKwYBBAGCNwoFAQYKKwYBBAGCNwoGAQYKKwYBBAGCNwoGAgYJKwYB
BAGCNxQCBgorBgEEAYI3FAIBBgorBgEEAYI3FAICBgorBgEEAYI3FAIDBgkrBgEE
AYI3FQEGCSsGAQQBgjcVAgYJKwYBBAGCNxUDBgkrBgEEAYI3FQQGCSsGAQQBgjcV
BQYJKwYBBAGCNxUGBgkrBgEEAYI3FRMGCisGAQQBgjdDAQEGCSsGAQQBgjcVCjCC
AT8GA1UdHwSCATYwggEyMCmgJ6AlhiNodHRwczovL2NlcnQucGlrYS5uZXQuY24v
Q0EtU00yLmNybDAnoCWgI4YhaHR0cHM6Ly9jZXJ0LjUycGlrYS5jbi9DQS1TTTIu
Y3JsMCigJqAkhiJodHRwczovL2NlcnQuNTJwaWthLmNvbS9DQS1TTTIuY3JsMCeg
JaAjhiFodHRwczovL2NlcnQuOTlwaWthLmNuL0NBLVNNMi5jcmwwKKAmoCSGImh0
dHBzOi8vY2VydC45OXBpa2EuY29tL0NBLVNNMi5jcmwwL6AtoCuGKWh0dHBzOi8v
cGlrYWNodWltLmdpdGh1Yi5pby9DQS9DQS1TTTIuY3JsMC6gLKAqhihodHRwczov
L3Bpa2FjaHVpbS5naXRlZS5pby9jYS9DQS1TTTIuY3JsMC0GA1UdIAQmMCQwBwYF
Z4EMAQMwCQYHYIEchu8qAzAGBgRVHSAAMAYGBFUdJQAwggKuBggrBgEFBQcBAQSC
AqAwggKcMCsGCCsGAQUFBzABhh9odHRwczovL2NlcnQucGlrYS5uZXQuY24vQ0Et
U00yMCkGCCsGAQUFBzABhh1odHRwczovL2NlcnQuNTJwaWthLmNuL0NBLVNNMjAq
BggrBgEFBQcwAYYeaHR0cHM6Ly9jZXJ0LjUycGlrYS5jb20vQ0EtU00yMCkGCCsG
AQUFBzABhh1odHRwczovL2NlcnQuOTlwaWthLmNuL0NBLVNNMjAqBggrBgEFBQcw
AYYeaHR0cHM6Ly9jZXJ0Ljk5cGlrYS5jb20vQ0EtU00yMDEGCCsGAQUFBzABhiVo
dHRwczovL3Bpa2FjaHVpbS5naXRodWIuaW8vQ0EvQ0EtU00yMDAGCCsGAQUFBzAB
hiRodHRwczovL3Bpa2FjaHVpbS5naXRlZS5pby9jYS9DQS1TTTIwLwYIKwYBBQUH
MAKGI2h0dHBzOi8vY2VydC5waWthLm5ldC5jbi9DQS1TTTIuY2VyMC0GCCsGAQUF
BzAChiFodHRwczovL2NlcnQuNTJwaWthLmNuL0NBLVNNMi5jZXIwLgYIKwYBBQUH
MAKGImh0dHBzOi8vY2VydC41MnBpa2EuY29tL0NBLVNNMi5jZXIwLQYIKwYBBQUH
MAKGIWh0dHBzOi8vY2VydC45OXBpa2EuY24vQ0EtU00yLmNlcjAuBggrBgEFBQcw
AoYiaHR0cHM6Ly9jZXJ0Ljk5cGlrYS5jb20vQ0EtU00yLmNlcjA1BggrBgEFBQcw
AoYpaHR0cHM6Ly9waWthY2h1aW0uZ2l0aHViLmlvL0NBL0NBLVNNMi5jZXIwNAYI
KwYBBQUHMAKGKGh0dHBzOi8vcGlrYWNodWltLmdpdGVlLmlvL2NhL0NBLVNNMi5j
ZXIwCgYIKoEcz1UBg3UDSAAwRQIgUT3ySq4jXOuAzdEjS1TmxO6utNxOuL2DJsHx
lLD24AUCIQCUfcaBUIsInS4IAkp04PxZyQ9o2d5ow7wTfLKoIIVAsw==
-----END CERTIFICATE-----
